target datalayout = "e-m:e-p270:32:32-p271:32:32-p272:64:64-i64:64-i128:128-f80:128-n8:16:32:64-S128"
target triple = "x86_64-pc-linux-gnu"

%struct.luaL_Reg = type { ptr, ptr }

@.str.5 = private unnamed_addr constant [18 x i8] c"too many upvalues\00", align 1

; Function Attrs: nounwind uwtable
define dso_local void @luaL_setfuncs(ptr noundef %0, ptr noundef %1, i32 noundef %2) #0 {
  %4 = alloca ptr, align 8
  %5 = alloca ptr, align 8
  %6 = alloca i32, align 4
  %7 = alloca i32, align 4
  store ptr %0, ptr %4, align 8, !tbaa !4
  store ptr %1, ptr %5, align 8, !tbaa !47
  store i32 %2, ptr %6, align 4, !tbaa !9
  %8 = load ptr, ptr %4, align 8, !tbaa !4
  %9 = load i32, ptr %6, align 4, !tbaa !9
  call void @luaL_checkstack(ptr noundef %8, i32 noundef %9, ptr noundef @.str.5)
  br label %10

10:                                               ; preds = %40, %3
  %11 = load ptr, ptr %5, align 8, !tbaa !47
  %12 = getelementptr inbounds nuw %struct.luaL_Reg, ptr %11, i32 0, i32 0
  %13 = load ptr, ptr %12, align 8, !tbaa !49
  %14 = icmp ne ptr %13, null
  br i1 %14, label %15, label %43

15:                                               ; preds = %10
  call void @llvm.lifetime.start.p0(i64 4, ptr %7) #9
  store i32 0, ptr %7, align 4, !tbaa !9
  br label %16

16:                                               ; preds = %24, %15
  %17 = load i32, ptr %7, align 4, !tbaa !9
  %18 = load i32, ptr %6, align 4, !tbaa !9
  %19 = icmp slt i32 %17, %18
  br i1 %19, label %20, label %27

20:                                               ; preds = %16
  %21 = load ptr, ptr %4, align 8, !tbaa !4
  %22 = load i32, ptr %6, align 4, !tbaa !9
  %23 = sub nsw i32 0, %22
  call void @lua_pushvalue(ptr noundef %21, i32 noundef %23)
  br label %24

24:                                               ; preds = %20
  %25 = load i32, ptr %7, align 4, !tbaa !9
  %26 = add nsw i32 %25, 1
  store i32 %26, ptr %7, align 4, !tbaa !9
  br label %16, !llvm.loop !52

27:                                               ; preds = %16
  %28 = load ptr, ptr %4, align 8, !tbaa !4
  %29 = load ptr, ptr %5, align 8, !tbaa !47
  %30 = getelementptr inbounds nuw %struct.luaL_Reg, ptr %29, i32 0, i32 1
  %31 = load ptr, ptr %30, align 8, !tbaa !53
  %32 = load i32, ptr %6, align 4, !tbaa !9
  call void @lua_pushcclosure(ptr noundef %28, ptr noundef %31, i32 noundef %32)
  %33 = load ptr, ptr %4, align 8, !tbaa !4
  %34 = load i32, ptr %6, align 4, !tbaa !9
  %35 = add nsw i32 %34, 2
  %36 = sub nsw i32 0, %35
  %37 = load ptr, ptr %5, align 8, !tbaa !47
  %38 = getelementptr inbounds nuw %struct.luaL_Reg, ptr %37, i32 0, i32 0
  %39 = load ptr, ptr %38, align 8, !tbaa !49
  call void @lua_setfield(ptr noundef %33, i32 noundef %36, ptr noundef %39)
  call void @llvm.lifetime.end.p0(i64 4, ptr %7) #9
  br label %40

40:                                               ; preds = %27
  %41 = load ptr, ptr %5, align 8, !tbaa !47
  %42 = getelementptr inbounds nuw %struct.luaL_Reg, ptr %41, i32 1
  store ptr %42, ptr %5, align 8, !tbaa !47
  br label %10, !llvm.loop !54

43:                                               ; preds = %10
  %44 = load ptr, ptr %4, align 8, !tbaa !4
  %45 = load i32, ptr %6, align 4, !tbaa !9
  %46 = sub nsw i32 0, %45
  %47 = sub nsw i32 %46, 1
  call void @lua_settop(ptr noundef %44, i32 noundef %47)
  ret void
}