; Function Attrs: nounwind uwtable
define dso_local void @luaL_setfuncs(ptr noundef %0, ptr noundef readonly captures(none) %1, i32 noundef %2) local_unnamed_addr #0 {
  tail call void @luaL_checkstack(ptr noundef %0, i32 noundef %2, ptr noundef nonnull @.str.5) #13
  %4 = load ptr, ptr %1, align 8, !tbaa !44
  %.not19 = icmp eq ptr %4, null
  br i1 %.not19, label %._crit_edge21, label %.preheader.lr.ph

.preheader.lr.ph:                                 ; preds = %3
  %5 = icmp sgt i32 %2, 0
  %6 = sub nsw i32 0, %2
  %7 = sub nsw i32 -2, %2
  br i1 %5, label %.preheader.us, label %.preheader

.preheader.us:                                    ; preds = %.preheader.lr.ph, %._crit_edge.us
  %.01620.us = phi ptr [ %13, %._crit_edge.us ], [ %1, %.preheader.lr.ph ]
  br label %8

8:                                                ; preds = %.preheader.us, %8
  %.018.us = phi i32 [ 0, %.preheader.us ], [ %9, %8 ]
  tail call void @lua_pushvalue(ptr noundef %0, i32 noundef %6) #13
  %9 = add nuw nsw i32 %.018.us, 1
  %exitcond.not = icmp eq i32 %9, %2
  br i1 %exitcond.not, label %._crit_edge.us, label %8, !llvm.loop !46

._crit_edge.us:                                   ; preds = %8
  %10 = getelementptr inbounds nuw i8, ptr %.01620.us, i64 8
  %11 = load ptr, ptr %10, align 8, !tbaa !47
  tail call void @lua_pushcclosure(ptr noundef %0, ptr noundef %11, i32 noundef %2) #13
  %12 = load ptr, ptr %.01620.us, align 8, !tbaa !44
  tail call void @lua_setfield(ptr noundef %0, i32 noundef %7, ptr noundef %12) #13
  %13 = getelementptr inbounds nuw i8, ptr %.01620.us, i64 16
  %14 = load ptr, ptr %13, align 8, !tbaa !44
  %.not.us = icmp eq ptr %14, null
  br i1 %.not.us, label %._crit_edge21, label %.preheader.us, !llvm.loop !48

.preheader:                                       ; preds = %.preheader.lr.ph, %.preheader
  %.01620 = phi ptr [ %18, %.preheader ], [ %1, %.preheader.lr.ph ]
  %15 = getelementptr inbounds nuw i8, ptr %.01620, i64 8
  %16 = load ptr, ptr %15, align 8, !tbaa !47
  tail call void @lua_pushcclosure(ptr noundef %0, ptr noundef %16, i32 noundef %2) #13
  %17 = load ptr, ptr %.01620, align 8, !tbaa !44
  tail call void @lua_setfield(ptr noundef %0, i32 noundef %7, ptr noundef %17) #13
  %18 = getelementptr inbounds nuw i8, ptr %.01620, i64 16
  %19 = load ptr, ptr %18, align 8, !tbaa !44
  %.not = icmp eq ptr %19, null
  br i1 %.not, label %._crit_edge21, label %.preheader, !llvm.loop !48

._crit_edge21:                                    ; preds = %.preheader, %._crit_edge.us, %3
  %20 = xor i32 %2, -1
  tail call void @lua_settop(ptr noundef %0, i32 noundef %20) #13
  ret void
}